target datalayout = "e-m:e-p270:32:32-p271:32:32-p272:64:64-i64:64-i128:128-f80:128-n8:16:32:64-S128"
target triple = "x86_64-pc-linux-gnu"

%struct.evp_pkey_asn1_method_st = type { i32, i32, i64, ptr, ptr, ptr, ptr, ptr, ptr, ptr, ptr, ptr, ptr, ptr, ptr, ptr, ptr, ptr, ptr, ptr, ptr, ptr, ptr, ptr, ptr, ptr, ptr, ptr, ptr, ptr, ptr, ptr, ptr, ptr, ptr, ptr, ptr, ptr, ptr, ptr, ptr }
%struct.evp_pkey_st = type { i32, i32, ptr, ptr, ptr, %union.legacy_pkey_st, %union.legacy_pkey_st, %struct.CRYPTO_REF_COUNT, ptr, ptr, i32, i8, %struct.crypto_ex_data_st, ptr, ptr, i64, ptr, i64, %struct.anon }
%union.legacy_pkey_st = type { ptr }
%struct.CRYPTO_REF_COUNT = type { i32 }
%struct.crypto_ex_data_st = type { ptr, ptr }
%struct.anon = type { i32, i32, i32 }
%struct.ecx_key_st = type { ptr, ptr, i8, [57 x i8], ptr, i64, i32, %struct.CRYPTO_REF_COUNT }

@.str.8 = private unnamed_addr constant [32 x i8] c"../openssl/crypto/ec/ecx_meth.c\00", align 1

; Function Attrs: nounwind uwtable
define internal i32 @ecx_ctrl(ptr noundef %0, i32 noundef %1, i64 noundef %2, ptr noundef %3) #0 {
  %5 = alloca i32, align 4
  %6 = alloca ptr, align 8
  %7 = alloca i32, align 4
  %8 = alloca i64, align 8
  %9 = alloca ptr, align 8
  %10 = alloca ptr, align 8
  %11 = alloca i32, align 4
  %12 = alloca ptr, align 8
  store ptr %0, ptr %6, align 8, !tbaa !3
  store i32 %1, ptr %7, align 4, !tbaa !10
  store i64 %2, ptr %8, align 8, !tbaa !46
  store ptr %3, ptr %9, align 8, !tbaa !47
  %13 = load i32, ptr %7, align 4, !tbaa !10
  switch i32 %13, label %109 [
    i32 9, label %14
    i32 10, label %37
  ]

14:                                               ; preds = %4
  call void @llvm.lifetime.start.p0(i64 8, ptr %10) #4
  %15 = load ptr, ptr %9, align 8, !tbaa !47
  %16 = load i64, ptr %8, align 8, !tbaa !46
  %17 = trunc i64 %16 to i32
  %18 = load ptr, ptr %6, align 8, !tbaa !3
  %19 = getelementptr inbounds nuw %struct.evp_pkey_st, ptr %18, i32 0, i32 2
  %20 = load ptr, ptr %19, align 8, !tbaa !16
  %21 = getelementptr inbounds nuw %struct.evp_pkey_asn1_method_st, ptr %20, i32 0, i32 0
  %22 = load i32, ptr %21, align 8, !tbaa !29
  %23 = call ptr @ossl_ecx_key_op(ptr noundef null, ptr noundef %15, i32 noundef %17, i32 noundef %22, i32 noundef 0, ptr noundef null, ptr noundef null)
  store ptr %23, ptr %10, align 8, !tbaa !31
  %24 = load ptr, ptr %10, align 8, !tbaa !31
  %25 = icmp ne ptr %24, null
  br i1 %25, label %26, label %35

26:                                               ; preds = %14
  %27 = load ptr, ptr %6, align 8, !tbaa !3
  %28 = load ptr, ptr %6, align 8, !tbaa !3
  %29 = getelementptr inbounds nuw %struct.evp_pkey_st, ptr %28, i32 0, i32 2
  %30 = load ptr, ptr %29, align 8, !tbaa !16
  %31 = getelementptr inbounds nuw %struct.evp_pkey_asn1_method_st, ptr %30, i32 0, i32 0
  %32 = load i32, ptr %31, align 8, !tbaa !29
  %33 = load ptr, ptr %10, align 8, !tbaa !31
  %34 = call i32 @EVP_PKEY_assign(ptr noundef %27, i32 noundef %32, ptr noundef %33)
  store i32 1, ptr %5, align 4
  store i32 1, ptr %11, align 4
  br label %36

35:                                               ; preds = %14
  store i32 0, ptr %5, align 4
  store i32 1, ptr %11, align 4
  br label %36

36:                                               ; preds = %35, %26
  call void @llvm.lifetime.end.p0(i64 8, ptr %10) #4
  br label %110

37:                                               ; preds = %4
  %38 = load ptr, ptr %6, align 8, !tbaa !3
  %39 = getelementptr inbounds nuw %struct.evp_pkey_st, ptr %38, i32 0, i32 5
  %40 = load ptr, ptr %39, align 8, !tbaa !33
  %41 = icmp ne ptr %40, null
  br i1 %41, label %42, label %108

42:                                               ; preds = %37
  call void @llvm.lifetime.start.p0(i64 8, ptr %12) #4
  %43 = load ptr, ptr %9, align 8, !tbaa !47
  store ptr %43, ptr %12, align 8, !tbaa !48
  %44 = load ptr, ptr %6, align 8, !tbaa !3
  %45 = getelementptr inbounds nuw %struct.evp_pkey_st, ptr %44, i32 0, i32 5
  %46 = load ptr, ptr %45, align 8, !tbaa !33
  %47 = getelementptr inbounds nuw %struct.ecx_key_st, ptr %46, i32 0, i32 3
  %48 = getelementptr inbounds [57 x i8], ptr %47, i64 0, i64 0
  %49 = load ptr, ptr %6, align 8, !tbaa !3
  %50 = getelementptr inbounds nuw %struct.evp_pkey_st, ptr %49, i32 0, i32 2
  %51 = load ptr, ptr %50, align 8, !tbaa !16
  %52 = getelementptr inbounds nuw %struct.evp_pkey_asn1_method_st, ptr %51, i32 0, i32 0
  %53 = load i32, ptr %52, align 8, !tbaa !29
  %54 = icmp eq i32 %53, 1034
  br i1 %54, label %62, label %55

55:                                               ; preds = %42
  %56 = load ptr, ptr %6, align 8, !tbaa !3
  %57 = getelementptr inbounds nuw %struct.evp_pkey_st, ptr %56, i32 0, i32 2
  %58 = load ptr, ptr %57, align 8, !tbaa !16
  %59 = getelementptr inbounds nuw %struct.evp_pkey_asn1_method_st, ptr %58, i32 0, i32 0
  %60 = load i32, ptr %59, align 8, !tbaa !29
  %61 = icmp eq i32 %60, 1087
  br i1 %61, label %62, label %63

62:                                               ; preds = %55, %42
  br label %71

63:                                               ; preds = %55
  %64 = load ptr, ptr %6, align 8, !tbaa !3
  %65 = getelementptr inbounds nuw %struct.evp_pkey_st, ptr %64, i32 0, i32 2
  %66 = load ptr, ptr %65, align 8, !tbaa !16
  %67 = getelementptr inbounds nuw %struct.evp_pkey_asn1_method_st, ptr %66, i32 0, i32 0
  %68 = load i32, ptr %67, align 8, !tbaa !29
  %69 = icmp eq i32 %68, 1035
  %70 = select i1 %69, i32 56, i32 57
  br label %71

71:                                               ; preds = %63, %62
  %72 = phi i32 [ 32, %62 ], [ %70, %63 ]
  %73 = sext i32 %72 to i64
  %74 = call noalias ptr @CRYPTO_memdup(ptr noundef %48, i64 noundef %73, ptr noundef @.str.8, i32 noundef 233)
  %75 = load ptr, ptr %12, align 8, !tbaa !48
  store ptr %74, ptr %75, align 8, !tbaa !14
  %76 = load ptr, ptr %12, align 8, !tbaa !48
  %77 = load ptr, ptr %76, align 8, !tbaa !14
  %78 = icmp ne ptr %77, null
  br i1 %78, label %79, label %104

79:                                               ; preds = %71
  %80 = load ptr, ptr %6, align 8, !tbaa !3
  %81 = getelementptr inbounds nuw %struct.evp_pkey_st, ptr %80, i32 0, i32 2
  %82 = load ptr, ptr %81, align 8, !tbaa !16
  %83 = getelementptr inbounds nuw %struct.evp_pkey_asn1_method_st, ptr %82, i32 0, i32 0
  %84 = load i32, ptr %83, align 8, !tbaa !29
  %85 = icmp eq i32 %84, 1034
  br i1 %85, label %93, label %86

86:                                               ; preds = %79
  %87 = load ptr, ptr %6, align 8, !tbaa !3
  %88 = getelementptr inbounds nuw %struct.evp_pkey_st, ptr %87, i32 0, i32 2
  %89 = load ptr, ptr %88, align 8, !tbaa !16
  %90 = getelementptr inbounds nuw %struct.evp_pkey_asn1_method_st, ptr %89, i32 0, i32 0
  %91 = load i32, ptr %90, align 8, !tbaa !29
  %92 = icmp eq i32 %91, 1087
  br i1 %92, label %93, label %94

93:                                               ; preds = %86, %79
  br label %102

94:                                               ; preds = %86
  %95 = load ptr, ptr %6, align 8, !tbaa !3
  %96 = getelementptr inbounds nuw %struct.evp_pkey_st, ptr %95, i32 0, i32 2
  %97 = load ptr, ptr %96, align 8, !tbaa !16
  %98 = getelementptr inbounds nuw %struct.evp_pkey_asn1_method_st, ptr %97, i32 0, i32 0
  %99 = load i32, ptr %98, align 8, !tbaa !29
  %100 = icmp eq i32 %99, 1035
  %101 = select i1 %100, i32 56, i32 57
  br label %102

102:                                              ; preds = %94, %93
  %103 = phi i32 [ 32, %93 ], [ %101, %94 ]
  store i32 %103, ptr %5, align 4
  store i32 1, ptr %11, align 4
  br label %105

104:                                              ; preds = %71
  store i32 0, ptr %11, align 4
  br label %105

105:                                              ; preds = %104, %102
  call void @llvm.lifetime.end.p0(i64 8, ptr %12) #4
  %106 = load i32, ptr %11, align 4
  switch i32 %106, label %112 [
    i32 0, label %107
    i32 1, label %110
  ]

107:                                              ; preds = %105
  br label %108

108:                                              ; preds = %107, %37
  store i32 0, ptr %5, align 4
  br label %110

109:                                              ; preds = %4
  store i32 -2, ptr %5, align 4
  br label %110

110:                                              ; preds = %109, %108, %105, %36
  %111 = load i32, ptr %5, align 4
  ret i32 %111

112:                                              ; preds = %105
  unreachable
}