; Function Attrs: nounwind uwtable
define internal range(i32 -2, 58) i32 @ecx_ctrl(ptr noundef %0, i32 noundef %1, i64 noundef %2, ptr noundef %3) #0 {
  switch i32 %1, label %.thread [
    i32 9, label %5
    i32 10, label %15
  ]

5:                                                ; preds = %4
  %6 = trunc i64 %2 to i32
  %7 = getelementptr inbounds nuw i8, ptr %0, i64 8
  %8 = load ptr, ptr %7, align 8, !tbaa !12
  %9 = load i32, ptr %8, align 8, !tbaa !25
  %10 = tail call ptr @ossl_ecx_key_op(ptr noundef null, ptr noundef %3, i32 noundef %6, i32 noundef %9, i32 noundef 0, ptr noundef null, ptr noundef null) #8
  %.not26 = icmp eq ptr %10, null
  br i1 %.not26, label %.thread, label %11

11:                                               ; preds = %5
  %12 = load ptr, ptr %7, align 8, !tbaa !12
  %13 = load i32, ptr %12, align 8, !tbaa !25
  %14 = tail call i32 @EVP_PKEY_assign(ptr noundef nonnull %0, i32 noundef %13, ptr noundef nonnull %10) #8
  br label %.thread

15:                                               ; preds = %4
  %16 = getelementptr inbounds nuw i8, ptr %0, i64 32
  %17 = load ptr, ptr %16, align 8, !tbaa !27
  %.not = icmp eq ptr %17, null
  br i1 %.not, label %.thread, label %18

18:                                               ; preds = %15
  %19 = getelementptr inbounds nuw i8, ptr %17, i64 17
  %20 = getelementptr inbounds nuw i8, ptr %0, i64 8
  %21 = load ptr, ptr %20, align 8, !tbaa !12
  %22 = load i32, ptr %21, align 8, !tbaa !25
  switch i32 %22, label %23 [
    i32 1034, label %26
    i32 1087, label %26
  ]

23:                                               ; preds = %18
  %24 = icmp eq i32 %22, 1035
  %25 = select i1 %24, i64 56, i64 57
  br label %26

26:                                               ; preds = %18, %18, %23
  %27 = phi i64 [ %25, %23 ], [ 32, %18 ], [ 32, %18 ]
  %28 = tail call noalias ptr @CRYPTO_memdup(ptr noundef nonnull %19, i64 noundef %27, ptr noundef nonnull @.str.8, i32 noundef 233) #8
  store ptr %28, ptr %3, align 8, !tbaa !8
  %.not25.not = icmp eq ptr %28, null
  br i1 %.not25.not, label %.thread, label %29

29:                                               ; preds = %26
  %30 = load ptr, ptr %20, align 8, !tbaa !12
  %31 = load i32, ptr %30, align 8, !tbaa !25
  switch i32 %31, label %32 [
    i32 1034, label %.thread
    i32 1087, label %.thread
  ]

32:                                               ; preds = %29
  %33 = icmp eq i32 %31, 1035
  %34 = select i1 %33, i32 56, i32 57
  br label %.thread

.thread:                                          ; preds = %29, %29, %32, %15, %26, %4, %11, %5
  %.1 = phi i32 [ 1, %11 ], [ 0, %5 ], [ -2, %4 ], [ 0, %26 ], [ 0, %15 ], [ 32, %29 ], [ 32, %29 ], [ %34, %32 ]
  ret i32 %.1
}